; ModuleID = '36/35.c'
source_filename = "36/35.c"
target datalayout = "e-m:e-p270:32:32-p271:32:32-p272:64:64-i64:64-f80:128-n8:16:32:64-S128"
target triple = "x86_64-pc-linux-gnu"

@.str = private unnamed_addr constant [3 x i8] c"%c\00", align 1
@.str.1 = private unnamed_addr constant [3 x i8] c"NO\00", align 1
@.str.2 = private unnamed_addr constant [3 x i8] c"N0\00", align 1
@.str.3 = private unnamed_addr constant [4 x i8] c"YES\00", align 1

; Function Attrs: noinline nounwind uwtable
define dso_local void @main() #0 {
  %1 = alloca [20 x i8], align 16
  %2 = alloca [20 x i8], align 16
  %3 = alloca i32, align 4
  %4 = alloca i32, align 4
  %5 = alloca i32, align 4
  %6 = alloca i32, align 4
  %7 = alloca i32, align 4
  %8 = alloca i32, align 4
  %9 = alloca i32, align 4
  store i32 0, i32* %7, align 4
  store i32 0, i32* %8, align 4
  store i32 0, i32* %9, align 4
  store i32 0, i32* %3, align 4
  br label %10

10:                                               ; preds = %29, %0
  %11 = load i32, i32* %3, align 4
  %12 = icmp sle i32 %11, 19
  br i1 %12, label %13, label %32

13:                                               ; preds = %10
  %14 = load i32, i32* %3, align 4
  %15 = sext i32 %14 to i64
  %16 = getelementptr inbounds [20 x i8], [20 x i8]* %1, i64 0, i64 %15
  %17 = call i32 (i8*, ...) @__isoc99_scanf(i8* getelementptr inbounds ([3 x i8], [3 x i8]* @.str, i64 0, i64 0), i8* %16)
  %18 = load i32, i32* %3, align 4
  %19 = sext i32 %18 to i64
  %20 = getelementptr inbounds [20 x i8], [20 x i8]* %1, i64 0, i64 %19
  %21 = load i8, i8* %20, align 1
  %22 = sext i8 %21 to i32
  %23 = icmp eq i32 %22, 32
  br i1 %23, label %24, label %28

24:                                               ; preds = %13
  %25 = load i32, i32* %3, align 4
  %26 = sext i32 %25 to i64
  %27 = getelementptr inbounds [20 x i8], [20 x i8]* %1, i64 0, i64 %26
  store i8 0, i8* %27, align 1
  br label %32

28:                                               ; preds = %13
  br label %29

29:                                               ; preds = %28
  %30 = load i32, i32* %3, align 4
  %31 = add nsw i32 %30, 1
  store i32 %31, i32* %3, align 4
  br label %10

32:                                               ; preds = %24, %10
  %33 = getelementptr inbounds [20 x i8], [20 x i8]* %2, i64 0, i64 0
  %34 = call i32 (i8*, ...) bitcast (i32 (...)* @gets to i32 (i8*, ...)*)(i8* %33)
  %35 = getelementptr inbounds [20 x i8], [20 x i8]* %1, i64 0, i64 0
  %36 = call i64 @strlen(i8* %35) #3
  %37 = trunc i64 %36 to i32
  store i32 %37, i32* %4, align 4
  %38 = getelementptr inbounds [20 x i8], [20 x i8]* %2, i64 0, i64 0
  %39 = call i64 @strlen(i8* %38) #3
  %40 = trunc i64 %39 to i32
  store i32 %40, i32* %5, align 4
  %41 = load i32, i32* %4, align 4
  %42 = load i32, i32* %5, align 4
  %43 = icmp ne i32 %41, %42
  br i1 %43, label %44, label %46

44:                                               ; preds = %32
  %45 = call i32 (i8*, ...) @printf(i8* getelementptr inbounds ([3 x i8], [3 x i8]* @.str.1, i64 0, i64 0))
  br label %106

46:                                               ; preds = %32
  store i32 97, i32* %3, align 4
  br label %47

47:                                               ; preds = %97, %46
  %48 = load i32, i32* %3, align 4
  %49 = icmp sle i32 %48, 122
  br i1 %49, label %50, label %100

50:                                               ; preds = %47
  store i32 0, i32* %6, align 4
  br label %51

51:                                               ; preds = %67, %50
  %52 = load i32, i32* %6, align 4
  %53 = load i32, i32* %4, align 4
  %54 = icmp slt i32 %52, %53
  br i1 %54, label %55, label %70

55:                                               ; preds = %51
  %56 = load i32, i32* %6, align 4
  %57 = sext i32 %56 to i64
  %58 = getelementptr inbounds [20 x i8], [20 x i8]* %1, i64 0, i64 %57
  %59 = load i8, i8* %58, align 1
  %60 = sext i8 %59 to i32
  %61 = load i32, i32* %3, align 4
  %62 = icmp eq i32 %60, %61
  br i1 %62, label %63, label %66

63:                                               ; preds = %55
  %64 = load i32, i32* %7, align 4
  %65 = add nsw i32 %64, 1
  store i32 %65, i32* %7, align 4
  br label %66

66:                                               ; preds = %63, %55
  br label %67

67:                                               ; preds = %66
  %68 = load i32, i32* %6, align 4
  %69 = add nsw i32 %68, 1
  store i32 %69, i32* %6, align 4
  br label %51

70:                                               ; preds = %51
  store i32 0, i32* %6, align 4
  br label %71

71:                                               ; preds = %87, %70
  %72 = load i32, i32* %6, align 4
  %73 = load i32, i32* %5, align 4
  %74 = icmp slt i32 %72, %73
  br i1 %74, label %75, label %90

75:                                               ; preds = %71
  %76 = load i32, i32* %6, align 4
  %77 = sext i32 %76 to i64
  %78 = getelementptr inbounds [20 x i8], [20 x i8]* %2, i64 0, i64 %77
  %79 = load i8, i8* %78, align 1
  %80 = sext i8 %79 to i32
  %81 = load i32, i32* %3, align 4
  %82 = icmp eq i32 %80, %81
  br i1 %82, label %83, label %86

83:                                               ; preds = %75
  %84 = load i32, i32* %8, align 4
  %85 = add nsw i32 %84, 1
  store i32 %85, i32* %8, align 4
  br label %86

86:                                               ; preds = %83, %75
  br label %87

87:                                               ; preds = %86
  %88 = load i32, i32* %6, align 4
  %89 = add nsw i32 %88, 1
  store i32 %89, i32* %6, align 4
  br label %71

90:                                               ; preds = %71
  %91 = load i32, i32* %7, align 4
  %92 = load i32, i32* %8, align 4
  %93 = icmp ne i32 %91, %92
  br i1 %93, label %94, label %96

94:                                               ; preds = %90
  %95 = call i32 (i8*, ...) @printf(i8* getelementptr inbounds ([3 x i8], [3 x i8]* @.str.2, i64 0, i64 0))
  store i32 1, i32* %9, align 4
  br label %100

96:                                               ; preds = %90
  br label %97

97:                                               ; preds = %96
  %98 = load i32, i32* %3, align 4
  %99 = add nsw i32 %98, 1
  store i32 %99, i32* %3, align 4
  br label %47

100:                                              ; preds = %94, %47
  %101 = load i32, i32* %9, align 4
  %102 = icmp eq i32 %101, 0
  br i1 %102, label %103, label %105

103:                                              ; preds = %100
  %104 = call i32 (i8*, ...) @printf(i8* getelementptr inbounds ([4 x i8], [4 x i8]* @.str.3, i64 0, i64 0))
  br label %105

105:                                              ; preds = %103, %100
  br label %106

106:                                              ; preds = %105, %44
  ret void
}

declare dso_local i32 @__isoc99_scanf(i8*, ...) #1

declare dso_local i32 @gets(...) #1

; Function Attrs: nounwind readonly
declare dso_local i64 @strlen(i8*) #2

declare dso_local i32 @printf(i8*, ...) #1


!llvm.module.flags = !{!0}
!llvm.ident = !{!1}

!0 = !{i32 1, !"wchar_size", i32 4}
!1 = !{!"clang version 10.0.0-4ubuntu1 "}
